; Function Attrs: mustprogress uwtable
define hidden noundef i64 @_ZNK19OpenColorIO_v2_4dev18Lut3DTransformImpl11getGridSizeEv(ptr noundef nonnull align 8 dereferenceable(240) %this) unnamed_addr #3 align 2 {
entry:
  %m_array.i = getelementptr inbounds i8, ptr %this, i64 184
  %vtable = load ptr, ptr %m_array.i, align 8
  %vfn = getelementptr inbounds i8, ptr %vtable, i64 32
  %0 = load ptr, ptr %vfn, align 8
  %call2 = tail call noundef i64 %0(ptr noundef nonnull align 8 dereferenceable(48) %m_array.i)
  ret i64 %call2
}